ccopy_reg
_reconstructor
p0
(cpandas.core.frame
DataFrame
p1
c__builtin__
object
p2
Ntp3
Rp4
(dp5
S'_metadata'
p6
(lp7
sS'_typ'
p8
S'dataframe'
p9
sS'_data'
p10
g0
(cpandas.core.internals
BlockManager
p11
g2
Ntp12
Rp13
((lp14
cpandas.indexes.base
_new_Index
p15
(cpandas.indexes.base
Index
p16
(dp17
S'data'
p18
cnumpy.core.multiarray
_reconstruct
p19
(cnumpy
ndarray
p20
(I0
tp21
S'b'
p22
tp23
Rp24
(I1
(I5
tp25
cnumpy
dtype
p26
(S'O8'
p27
I0
I1
tp28
Rp29
(I3
S'|'
p30
NNNI-1
I-1
I63
tp31
bI00
(lp32
Vindex
p33
aVid
p34
aVname
p35
aVartist
p36
aVartist_name
p37
atp38
bsS'name'
p39
Nstp40
Rp41
ag15
(cpandas.indexes.range
RangeIndex
p42
(dp43
S'start'
p44
I0
sS'step'
p45
I1
sS'stop'
p46
I83
sg39
Nstp47
Rp48
a(lp49
g19
(g20
(I0
tp50
g22
tp51
Rp52
(I1
(I1
I83
tp53
g26
(S'i8'
p54
I0
I1
tp55
Rp56
(I3
S'<'
p57
NNNI-1
I-1
I0
tp58
bI00
S'\x00\x00\x00\x00\x00\x00\x00\x00\x01\x00\x00\x00\x00\x00\x00\x00\x02\x00\x00\x00\x00\x00\x00\x00\x03\x00\x00\x00\x00\x00\x00\x00\x04\x00\x00\x00\x00\x00\x00\x00\x05\x00\x00\x00\x00\x00\x00\x00\x06\x00\x00\x00\x00\x00\x00\x00\x07\x00\x00\x00\x00\x00\x00\x00\x08\x00\x00\x00\x00\x00\x00\x00\t\x00\x00\x00\x00\x00\x00\x00\n\x00\x00\x00\x00\x00\x00\x00\x0b\x00\x00\x00\x00\x00\x00\x00\x0c\x00\x00\x00\x00\x00\x00\x00\r\x00\x00\x00\x00\x00\x00\x00\x0e\x00\x00\x00\x00\x00\x00\x00\x0f\x00\x00\x00\x00\x00\x00\x00\x10\x00\x00\x00\x00\x00\x00\x00\x11\x00\x00\x00\x00\x00\x00\x00\x12\x00\x00\x00\x00\x00\x00\x00\x13\x00\x00\x00\x00\x00\x00\x00\x14\x00\x00\x00\x00\x00\x00\x00\x15\x00\x00\x00\x00\x00\x00\x00\x16\x00\x00\x00\x00\x00\x00\x00\x17\x00\x00\x00\x00\x00\x00\x00\x18\x00\x00\x00\x00\x00\x00\x00\x19\x00\x00\x00\x00\x00\x00\x00\x1a\x00\x00\x00\x00\x00\x00\x00\x1b\x00\x00\x00\x00\x00\x00\x00\x1c\x00\x00\x00\x00\x00\x00\x00\x1d\x00\x00\x00\x00\x00\x00\x00\x1e\x00\x00\x00\x00\x00\x00\x00\x1f\x00\x00\x00\x00\x00\x00\x00 \x00\x00\x00\x00\x00\x00\x00!\x00\x00\x00\x00\x00\x00\x00"\x00\x00\x00\x00\x00\x00\x00#\x00\x00\x00\x00\x00\x00\x00$\x00\x00\x00\x00\x00\x00\x00%\x00\x00\x00\x00\x00\x00\x00&\x00\x00\x00\x00\x00\x00\x00\'\x00\x00\x00\x00\x00\x00\x00(\x00\x00\x00\x00\x00\x00\x00)\x00\x00\x00\x00\x00\x00\x00*\x00\x00\x00\x00\x00\x00\x00+\x00\x00\x00\x00\x00\x00\x00,\x00\x00\x00\x00\x00\x00\x00-\x00\x00\x00\x00\x00\x00\x00.\x00\x00\x00\x00\x00\x00\x00/\x00\x00\x00\x00\x00\x00\x000\x00\x00\x00\x00\x00\x00\x001\x00\x00\x00\x00\x00\x00\x002\x00\x00\x00\x00\x00\x00\x003\x00\x00\x00\x00\x00\x00\x004\x00\x00\x00\x00\x00\x00\x005\x00\x00\x00\x00\x00\x00\x006\x00\x00\x00\x00\x00\x00\x007\x00\x00\x00\x00\x00\x00\x008\x00\x00\x00\x00\x00\x00\x009\x00\x00\x00\x00\x00\x00\x00:\x00\x00\x00\x00\x00\x00\x00;\x00\x00\x00\x00\x00\x00\x00<\x00\x00\x00\x00\x00\x00\x00=\x00\x00\x00\x00\x00\x00\x00>\x00\x00\x00\x00\x00\x00\x00?\x00\x00\x00\x00\x00\x00\x00@\x00\x00\x00\x00\x00\x00\x00A\x00\x00\x00\x00\x00\x00\x00B\x00\x00\x00\x00\x00\x00\x00C\x00\x00\x00\x00\x00\x00\x00D\x00\x00\x00\x00\x00\x00\x00E\x00\x00\x00\x00\x00\x00\x00F\x00\x00\x00\x00\x00\x00\x00G\x00\x00\x00\x00\x00\x00\x00H\x00\x00\x00\x00\x00\x00\x00I\x00\x00\x00\x00\x00\x00\x00J\x00\x00\x00\x00\x00\x00\x00K\x00\x00\x00\x00\x00\x00\x00L\x00\x00\x00\x00\x00\x00\x00M\x00\x00\x00\x00\x00\x00\x00N\x00\x00\x00\x00\x00\x00\x00O\x00\x00\x00\x00\x00\x00\x00P\x00\x00\x00\x00\x00\x00\x00Q\x00\x00\x00\x00\x00\x00\x00R\x00\x00\x00\x00\x00\x00\x00'
p59
tp60
bag19
(g20
(I0
tp61
g22
tp62
Rp63
(I1
(I4
I83
tp64
g29
I00
(lp65
V04egsB0ZdYUo7XZ7x71t6F
p66
aV06qgXuIQEpgNfxRLxtWwvz
p67
aV07ZNnuqCod38Kp2V5ozvN4
p68
aV09jrbCYdQLTKBKjq1L17N6
p69
aV0Gi5rWVyNQ8JMHsBdx6GJE
p70
aV0GsGx0S5ANGwsaN3ZoZATh
p71
aV0Y3CGeaNFRICTfmOLy41KR
p72
aV0ZdxEkFmVAw6fIPfQ8birW
p73
aV0mqltSIfJ1O32l89gsk6YY
p74
aV0qEeuGV5ZVmy0h5viQqXij
p75
aV15sktie1gHuWG1Wx3wXPNa
p76
aV1KMzGhEukcy9GfBUOphR0B
p77
aV1LEYW9v4Q9U4EtTsh0pP85
p78
aV1M6IbIQY2yf9we4LlT2keJ
p79
aV1OWPYsuHD3AaYpFGtTk1IO
p80
aV1RmjwBuHyMKndehgjXJA5d
p81
aV1XJ9pFMafd9GB3cnb2V3yq
p82
aV1mNKyr5vsXi6hDsqgGk1kd
p83
aV1zdDIieTg3JyVPeHPO9227
p84
aV29rBJWizgnVht4qXpHyDxh
p85
aV2KluxKq5yTWYWNCdrOQNCr
p86
aV2M0wZ9iOCsul9PgKCHnIWT
p87
aV2N4pH06laaYRYZXyK5H1n4
p88
aV2Yj9MHWWydKgKEjJG0rEXx
p89
aV2ZbqLzPVJxwJ5KPVXb3KaL
p90
aV2lOJvkeVc7nlhe88SXT5mz
p91
aV2mpLwDMMgobpApHCYipQSO
p92
aV2oWRN44Ep7bMaiLgqzLOne
p93
aV2poZizpSFfchvAdyQ13Da8
p94
aV2vMvitDH9MLigSsxpEVzIN
p95
aV2w1jwy4Rfw7DRMsn72tPoG
p96
aV2wT61I0Zqfbdzrkr2dGd8r
p97
aV2x4Wu8WR2X47rMBgWVWBnU
p98
aV32JL9HbzCsPsQh4hyJEBzE
p99
aV386TOhBfCuuwE36ykHT91T
p100
aV3CqP60RUsrhRDJus3yalAF
p101
aV3PKjjyq6E57GLmefwJKK58
p102
aV3QFZvx49yi57nqSgfiOqfI
p103
aV3SsvsirxP4alBsG7clF3Ox
p104
aV3brCNRhSJW6mgm5rzwmaD0
p105
aV3kwdYKNCyIfmWQDsgcQ0Rb
p106
aV3o705G8j9ztnDG8m7sGmyU
p107
aV3vTXoYrHKvSkgD7prCwYgW
p108
aV40IS4XOkOmA8KqN09rNUy8
p109
aV42TAvmrlrFQE6Ifej21yQm
p110
aV45nVDr2YTFsovr0T7VmnOx
p111
aV45pvLeeK3mcKz1O8hPmYMX
p112
aV4LM7in394p4JnRs8awOrpD
p113
aV4UgRRdFW4H4Y711KmWwJLJ
p114
aV4YA9rB9XEX4mSwUF6bSgkN
p115
aV4gSGzJuEvPq1mMOmilx6u7
p116
aV4teIbCGADOYxzU9XzElvnQ
p117
aV4v9UC1S81u6t37DYDCeimA
p118
aV4vd7KzctkhCVCUnCCyoO0d
p119
aV5GQdtJa0OZu3hRefAueWBk
p120
aV5GYG009TjoMXGHb4TGRqk9
p121
aV5VZKuCbXNF1oYVOU1m1hEW
p122
aV5kcogo8rmbAuu8zeQbRUGg
p123
aV5qrfyPM4s9VG0WpEKBEWrZ
p124
aV5rpnXkcUyejpN0lxMe23XX
p125
aV5twpGTneeeDdLR60oAR0MA
p126
aV663E41fUIDEnzN7xTnFLT0
p127
aV6YcQssEtp9VdssPYIwwIjn
p128
aV6c4T1Dz9hwK5xat7eh3g8o
p129
aV6extgyeYdF9MW3gBe91rY4
p130
aV6kQslnSx6DvMjG1yBby22f
p131
aV6uoln64dSjWgnb4aAI4JzY
p132
aV6zHSljpcAC55lrIqjsS3TL
p133
aV6zQ1rRPS9JVM6EQjQqxtbz
p134
aV703DNl6A77y8Wyuof37IlD
p135
aV73fK1NmnAyblzAmgEToxpl
p136
aV77e9ESO8vUzxi0viEgDqyu
p137
aV78GyX18u4pQwlnVYBaGjbb
p138
aV7BglfN5b1n3ItWQ6SX1jlc
p139
aV7CJDRa03XNkqFcv2HnZ4lO
p140
aV7MlYRJOFuk7ge8Ruo6rqSn
p141
aV7aRD7mdzxwszfRNgv8hGzt
p142
aV7cCftH2CI7NpP1LHS74PxE
p143
aV7tcwPuaceqt58yG9hmzFLe
p144
aV7vRjJ6E9BBRoQva9OurhAQ
p145
aV7x48P3gi79WKxpZkzHMp82
p146
aV7ybRqQNDDe5qZNs5sg2V2Z
p147
aV7zkobTxrmZxHn2UAXNgG2o
p148
aVomen - live from maida vale
p149
aVhoward on "he never sleeps" by take 6
p150
aVhelp me lose my mind (feat. london grammar)
p151
aVjanuary
p152
aVmoog for love - radio edit
p153
aVsecond chance
p154
aVmoving mountains - live from maida vale
p155
aVcontrol
p156
aVhelp me lose my mind - sohn remix
p157
aVguy on "the light" by jordan rakei
p158
aVhoward on "everybody wants to rule the world" by tears for fears
p159
aVguy on "let's lovedance tonight (danny krivit re-edit)" by gary
p160
aVjaded - lone remix
p161
aVlatch - live from madison square garden
p162
aVyou & me feat. eliza doolittle (flume remix)
p163
aVintro
p164
aVhourglass
p165
aVwhat's in your head - mak & pasteman remix
p166
aVgood intentions
p167
aVwilling & able
p168
aVconfess to me
p169
aVmagnets - a-trak remix
p170
aVhoward on "just friends (sunny)" by musiq soulchild
p171
aVstimulation - preditah remix
p172
aVnocturnal
p173
aVhelp me lose my mind - paul woolford remix
p174
aVyou & me - bicep remix
p175
aVboiling - medlar remix
p176
aVguy on "boss" by disclosure
p177
aVmoving mountains
p178
aVwhen a fire starts to burn - midland remix
p179
aVgrab her!
p180
aVmagnets - sg lewis remix
p181
aVlatch - dj premier remix
p182
aVlatch - live from bonnaroo, usa / 2014
p183
aVcontrol - joe goddard remix
p184
aVomen - klyne remix
p185
aVomen - jonas rathsman remix
p186
aVmasterpiece
p187
aVtenderly
p188
aVrunning - disclosure remix
p189
aVguy on "black man in a white world" by michael kiwanuka
p190
aVoffline dexterity
p191
aVafterthought
p192
aVlatch - t. williams club remix
p193
aVguy on "the season/carry me" by anderson.paak
p194
aVmolecules
p195
aVhotline bling - live from maida vale
p196
aVfollow
p197
aVguy on "beau sovereign" by leon vynehall
p198
aVguy on "euphoria" by boyz noise feat. remy banks
p199
aVmagnets - disclosure v.i.p.
p200
aVyou & me - radio edit
p201
aVsuperego
p202
aVhelp me lose my mind - larry heard remix
p203
aVjaded - live from maida vale
p204
aVjanuary - kaytranada edition
p205
aVvoices - wookie remix
p206
aVvoices
p207
aVhoward on "one of these things first" by nick drake
p208
aVhoward on "that's the way of the world" by earth, wind & fire
p209
aVfeel like i do
p210
aVmagnets - jon hopkins remix
p211
aVjaded
p212
aVthe mechanism
p213
aVomen - motez remix
p214
aVnocturnal - disclosure v.i.p. / radio edit
p215
aVnever be like you (disclosure remix) [feat. kai]
p216
aVnocturnal - disclosure v.i.p.
p217
aVflow
p218
aVguy on "moog for love" by disclosure
p219
aVhoward on "i.g.y" by donald fagen
p220
aVechoes
p221
aVdefeated no more
p222
aVhoward on "solsbury hill" by peter gabriel
p223
aVlatch - live from bonnaroo 2014
p224
aVomen - radio edit
p225
aVlatch - jamie jones remix
p226
aVhoward on "i didn't mean to turn you on" by robert palmer
p227
aVguy on "lite spots" by kaytranada
p228
aVapollo
p229
aVstimulation
p230
aVhoward on "englishman in new york" by sting
p231
aV6nS5roXSAGhTGr34W6n7Et
p232
aV6nS5roXSAGhTGr34W6n7Et
p233
aV6nS5roXSAGhTGr34W6n7Et
p234
aV6nS5roXSAGhTGr34W6n7Et
p235
aV6nS5roXSAGhTGr34W6n7Et
p236
aV6nS5roXSAGhTGr34W6n7Et
p237
aV6nS5roXSAGhTGr34W6n7Et
p238
aV6nS5roXSAGhTGr34W6n7Et
p239
aV6nS5roXSAGhTGr34W6n7Et
p240
aV6nS5roXSAGhTGr34W6n7Et
p241
aV6nS5roXSAGhTGr34W6n7Et
p242
aV6nS5roXSAGhTGr34W6n7Et
p243
aV6nS5roXSAGhTGr34W6n7Et
p244
aV6nS5roXSAGhTGr34W6n7Et
p245
aV6nS5roXSAGhTGr34W6n7Et
p246
aV6nS5roXSAGhTGr34W6n7Et
p247
aV6nS5roXSAGhTGr34W6n7Et
p248
aV6nS5roXSAGhTGr34W6n7Et
p249
aV6nS5roXSAGhTGr34W6n7Et
p250
aV6nS5roXSAGhTGr34W6n7Et
p251
aV6nS5roXSAGhTGr34W6n7Et
p252
aV6nS5roXSAGhTGr34W6n7Et
p253
aV6nS5roXSAGhTGr34W6n7Et
p254
aV6nS5roXSAGhTGr34W6n7Et
p255
aV6nS5roXSAGhTGr34W6n7Et
p256
aV6nS5roXSAGhTGr34W6n7Et
p257
aV6nS5roXSAGhTGr34W6n7Et
p258
aV6nS5roXSAGhTGr34W6n7Et
p259
aV6nS5roXSAGhTGr34W6n7Et
p260
aV6nS5roXSAGhTGr34W6n7Et
p261
aV6nS5roXSAGhTGr34W6n7Et
p262
aV6nS5roXSAGhTGr34W6n7Et
p263
aV6nS5roXSAGhTGr34W6n7Et
p264
aV6nS5roXSAGhTGr34W6n7Et
p265
aV6nS5roXSAGhTGr34W6n7Et
p266
aV6nS5roXSAGhTGr34W6n7Et
p267
aV6nS5roXSAGhTGr34W6n7Et
p268
aV6nS5roXSAGhTGr34W6n7Et
p269
aV6nS5roXSAGhTGr34W6n7Et
p270
aV6nS5roXSAGhTGr34W6n7Et
p271
aV6nS5roXSAGhTGr34W6n7Et
p272
aV6nS5roXSAGhTGr34W6n7Et
p273
aV6nS5roXSAGhTGr34W6n7Et
p274
aV6nS5roXSAGhTGr34W6n7Et
p275
aV6nS5roXSAGhTGr34W6n7Et
p276
aV6nS5roXSAGhTGr34W6n7Et
p277
aV6nS5roXSAGhTGr34W6n7Et
p278
aV6nS5roXSAGhTGr34W6n7Et
p279
aV6nS5roXSAGhTGr34W6n7Et
p280
aV6nS5roXSAGhTGr34W6n7Et
p281
aV6nS5roXSAGhTGr34W6n7Et
p282
aV6nS5roXSAGhTGr34W6n7Et
p283
aV6nS5roXSAGhTGr34W6n7Et
p284
aV6nS5roXSAGhTGr34W6n7Et
p285
aV6nS5roXSAGhTGr34W6n7Et
p286
aV6nS5roXSAGhTGr34W6n7Et
p287
aV6nS5roXSAGhTGr34W6n7Et
p288
aV6nS5roXSAGhTGr34W6n7Et
p289
aV6nS5roXSAGhTGr34W6n7Et
p290
aV6nS5roXSAGhTGr34W6n7Et
p291
aV6nS5roXSAGhTGr34W6n7Et
p292
aV6nS5roXSAGhTGr34W6n7Et
p293
aV6nS5roXSAGhTGr34W6n7Et
p294
aV6nS5roXSAGhTGr34W6n7Et
p295
aV6nS5roXSAGhTGr34W6n7Et
p296
aV6nS5roXSAGhTGr34W6n7Et
p297
aV6nS5roXSAGhTGr34W6n7Et
p298
aV6nS5roXSAGhTGr34W6n7Et
p299
aV6nS5roXSAGhTGr34W6n7Et
p300
aV6nS5roXSAGhTGr34W6n7Et
p301
aV6nS5roXSAGhTGr34W6n7Et
p302
aV6nS5roXSAGhTGr34W6n7Et
p303
aV6nS5roXSAGhTGr34W6n7Et
p304
aV6nS5roXSAGhTGr34W6n7Et
p305
aV6nS5roXSAGhTGr34W6n7Et
p306
aV6nS5roXSAGhTGr34W6n7Et
p307
aV6nS5roXSAGhTGr34W6n7Et
p308
aV6nS5roXSAGhTGr34W6n7Et
p309
aV6nS5roXSAGhTGr34W6n7Et
p310
aV6nS5roXSAGhTGr34W6n7Et
p311
aV6nS5roXSAGhTGr34W6n7Et
p312
aV6nS5roXSAGhTGr34W6n7Et
p313
aV6nS5roXSAGhTGr34W6n7Et
p314
aVDisclosure
p315
aVDisclosure
p316
aVDisclosure
p317
aVDisclosure
p318
aVDisclosure
p319
aVDisclosure
p320
aVDisclosure
p321
aVDisclosure
p322
aVDisclosure
p323
aVDisclosure
p324
aVDisclosure
p325
aVDisclosure
p326
aVDisclosure
p327
aVDisclosure
p328
aVDisclosure
p329
aVDisclosure
p330
aVDisclosure
p331
aVDisclosure
p332
aVDisclosure
p333
aVDisclosure
p334
aVDisclosure
p335
aVDisclosure
p336
aVDisclosure
p337
aVDisclosure
p338
aVDisclosure
p339
aVDisclosure
p340
aVDisclosure
p341
aVDisclosure
p342
aVDisclosure
p343
aVDisclosure
p344
aVDisclosure
p345
aVDisclosure
p346
aVDisclosure
p347
aVDisclosure
p348
aVDisclosure
p349
aVDisclosure
p350
aVDisclosure
p351
aVDisclosure
p352
aVDisclosure
p353
aVDisclosure
p354
aVDisclosure
p355
aVDisclosure
p356
aVDisclosure
p357
aVDisclosure
p358
aVDisclosure
p359
aVDisclosure
p360
aVDisclosure
p361
aVDisclosure
p362
aVDisclosure
p363
aVDisclosure
p364
aVDisclosure
p365
aVDisclosure
p366
aVDisclosure
p367
aVDisclosure
p368
aVDisclosure
p369
aVDisclosure
p370
aVDisclosure
p371
aVDisclosure
p372
aVDisclosure
p373
aVDisclosure
p374
aVDisclosure
p375
aVDisclosure
p376
aVDisclosure
p377
aVDisclosure
p378
aVDisclosure
p379
aVDisclosure
p380
aVDisclosure
p381
aVDisclosure
p382
aVDisclosure
p383
aVDisclosure
p384
aVDisclosure
p385
aVDisclosure
p386
aVDisclosure
p387
aVDisclosure
p388
aVDisclosure
p389
aVDisclosure
p390
aVDisclosure
p391
aVDisclosure
p392
aVDisclosure
p393
aVDisclosure
p394
aVDisclosure
p395
aVDisclosure
p396
aVDisclosure
p397
atp398
ba(lp399
g15
(g16
(dp400
g18
g19
(g20
(I0
tp401
g22
tp402
Rp403
(I1
(I1
tp404
g29
I00
(lp405
g33
atp406
bsg39
Nstp407
Rp408
ag15
(g16
(dp409
g18
g19
(g20
(I0
tp410
g22
tp411
Rp412
(I1
(I4
tp413
g29
I00
(lp414
g34
ag35
ag36
ag37
atp415
bsg39
Nstp416
Rp417
a(dp418
S'0.14.1'
p419
(dp420
S'axes'
p421
g14
sS'blocks'
p422
(lp423
(dp424
S'mgr_locs'
p425
c__builtin__
slice
p426
(I0
I1
I1
tp427
Rp428
sS'values'
p429
g52
sa(dp430
g425
g426
(I1
I5
I1
tp431
Rp432
sg429
g63
sasstp433
bsb.