ccopy_reg
_reconstructor
p0
(cpandas.core.frame
DataFrame
p1
c__builtin__
object
p2
Ntp3
Rp4
(dp5
S'_metadata'
p6
(lp7
sS'_typ'
p8
S'dataframe'
p9
sS'_data'
p10
g0
(cpandas.core.internals
BlockManager
p11
g2
Ntp12
Rp13
((lp14
cpandas.indexes.base
_new_Index
p15
(cpandas.indexes.base
Index
p16
(dp17
S'data'
p18
cnumpy.core.multiarray
_reconstruct
p19
(cnumpy
ndarray
p20
(I0
tp21
S'b'
p22
tp23
Rp24
(I1
(I10
tp25
cnumpy
dtype
p26
(S'O8'
p27
I0
I1
tp28
Rp29
(I3
S'|'
p30
NNNI-1
I-1
I63
tp31
bI00
(lp32
Vindex
p33
aVid
p34
aVartist
p35
aValbum_title
p36
aValbum_year
p37
aVartist_type_1
p38
aVgenre_1
p39
aVgenre_2
p40
aVgn_track_id
p41
aVmood_1
p42
atp43
bsS'name'
p44
Nstp45
Rp46
ag15
(cpandas.indexes.range
RangeIndex
p47
(dp48
S'start'
p49
I0
sS'step'
p50
I1
sS'stop'
p51
I83
sg44
Nstp52
Rp53
a(lp54
g19
(g20
(I0
tp55
g22
tp56
Rp57
(I1
(I1
I83
tp58
g26
(S'i8'
p59
I0
I1
tp60
Rp61
(I3
S'<'
p62
NNNI-1
I-1
I0
tp63
bI00
S'\x00\x00\x00\x00\x00\x00\x00\x00\x01\x00\x00\x00\x00\x00\x00\x00\x02\x00\x00\x00\x00\x00\x00\x00\x03\x00\x00\x00\x00\x00\x00\x00\x04\x00\x00\x00\x00\x00\x00\x00\x05\x00\x00\x00\x00\x00\x00\x00\x06\x00\x00\x00\x00\x00\x00\x00\x07\x00\x00\x00\x00\x00\x00\x00\x08\x00\x00\x00\x00\x00\x00\x00\t\x00\x00\x00\x00\x00\x00\x00\n\x00\x00\x00\x00\x00\x00\x00\x0b\x00\x00\x00\x00\x00\x00\x00\x0c\x00\x00\x00\x00\x00\x00\x00\r\x00\x00\x00\x00\x00\x00\x00\x0e\x00\x00\x00\x00\x00\x00\x00\x0f\x00\x00\x00\x00\x00\x00\x00\x10\x00\x00\x00\x00\x00\x00\x00\x11\x00\x00\x00\x00\x00\x00\x00\x12\x00\x00\x00\x00\x00\x00\x00\x13\x00\x00\x00\x00\x00\x00\x00\x14\x00\x00\x00\x00\x00\x00\x00\x15\x00\x00\x00\x00\x00\x00\x00\x16\x00\x00\x00\x00\x00\x00\x00\x17\x00\x00\x00\x00\x00\x00\x00\x18\x00\x00\x00\x00\x00\x00\x00\x19\x00\x00\x00\x00\x00\x00\x00\x1a\x00\x00\x00\x00\x00\x00\x00\x1b\x00\x00\x00\x00\x00\x00\x00\x1c\x00\x00\x00\x00\x00\x00\x00\x1d\x00\x00\x00\x00\x00\x00\x00\x1e\x00\x00\x00\x00\x00\x00\x00\x1f\x00\x00\x00\x00\x00\x00\x00 \x00\x00\x00\x00\x00\x00\x00!\x00\x00\x00\x00\x00\x00\x00"\x00\x00\x00\x00\x00\x00\x00#\x00\x00\x00\x00\x00\x00\x00$\x00\x00\x00\x00\x00\x00\x00%\x00\x00\x00\x00\x00\x00\x00&\x00\x00\x00\x00\x00\x00\x00\'\x00\x00\x00\x00\x00\x00\x00(\x00\x00\x00\x00\x00\x00\x00)\x00\x00\x00\x00\x00\x00\x00*\x00\x00\x00\x00\x00\x00\x00+\x00\x00\x00\x00\x00\x00\x00,\x00\x00\x00\x00\x00\x00\x00-\x00\x00\x00\x00\x00\x00\x00.\x00\x00\x00\x00\x00\x00\x00/\x00\x00\x00\x00\x00\x00\x000\x00\x00\x00\x00\x00\x00\x001\x00\x00\x00\x00\x00\x00\x002\x00\x00\x00\x00\x00\x00\x003\x00\x00\x00\x00\x00\x00\x004\x00\x00\x00\x00\x00\x00\x005\x00\x00\x00\x00\x00\x00\x006\x00\x00\x00\x00\x00\x00\x007\x00\x00\x00\x00\x00\x00\x008\x00\x00\x00\x00\x00\x00\x009\x00\x00\x00\x00\x00\x00\x00:\x00\x00\x00\x00\x00\x00\x00;\x00\x00\x00\x00\x00\x00\x00<\x00\x00\x00\x00\x00\x00\x00=\x00\x00\x00\x00\x00\x00\x00>\x00\x00\x00\x00\x00\x00\x00?\x00\x00\x00\x00\x00\x00\x00@\x00\x00\x00\x00\x00\x00\x00A\x00\x00\x00\x00\x00\x00\x00B\x00\x00\x00\x00\x00\x00\x00C\x00\x00\x00\x00\x00\x00\x00D\x00\x00\x00\x00\x00\x00\x00E\x00\x00\x00\x00\x00\x00\x00F\x00\x00\x00\x00\x00\x00\x00G\x00\x00\x00\x00\x00\x00\x00H\x00\x00\x00\x00\x00\x00\x00I\x00\x00\x00\x00\x00\x00\x00J\x00\x00\x00\x00\x00\x00\x00K\x00\x00\x00\x00\x00\x00\x00L\x00\x00\x00\x00\x00\x00\x00M\x00\x00\x00\x00\x00\x00\x00N\x00\x00\x00\x00\x00\x00\x00O\x00\x00\x00\x00\x00\x00\x00P\x00\x00\x00\x00\x00\x00\x00Q\x00\x00\x00\x00\x00\x00\x00R\x00\x00\x00\x00\x00\x00\x00'
p64
tp65
bag19
(g20
(I0
tp66
g22
tp67
Rp68
(I1
(I9
I83
tp69
g29
I00
(lp70
V04egsB0ZdYUo7XZ7x71t6F
p71
aV06qgXuIQEpgNfxRLxtWwvz
p72
aV07ZNnuqCod38Kp2V5ozvN4
p73
aV09jrbCYdQLTKBKjq1L17N6
p74
aV0Gi5rWVyNQ8JMHsBdx6GJE
p75
aV0GsGx0S5ANGwsaN3ZoZATh
p76
aV0Y3CGeaNFRICTfmOLy41KR
p77
aV0ZdxEkFmVAw6fIPfQ8birW
p78
aV0mqltSIfJ1O32l89gsk6YY
p79
aV0qEeuGV5ZVmy0h5viQqXij
p80
aV15sktie1gHuWG1Wx3wXPNa
p81
aV1KMzGhEukcy9GfBUOphR0B
p82
aV1LEYW9v4Q9U4EtTsh0pP85
p83
aV1M6IbIQY2yf9we4LlT2keJ
p84
aV1OWPYsuHD3AaYpFGtTk1IO
p85
aV1RmjwBuHyMKndehgjXJA5d
p86
aV1XJ9pFMafd9GB3cnb2V3yq
p87
aV1mNKyr5vsXi6hDsqgGk1kd
p88
aV1zdDIieTg3JyVPeHPO9227
p89
aV29rBJWizgnVht4qXpHyDxh
p90
aV2KluxKq5yTWYWNCdrOQNCr
p91
aV2M0wZ9iOCsul9PgKCHnIWT
p92
aV2N4pH06laaYRYZXyK5H1n4
p93
aV2Yj9MHWWydKgKEjJG0rEXx
p94
aV2ZbqLzPVJxwJ5KPVXb3KaL
p95
aV2lOJvkeVc7nlhe88SXT5mz
p96
aV2mpLwDMMgobpApHCYipQSO
p97
aV2oWRN44Ep7bMaiLgqzLOne
p98
aV2poZizpSFfchvAdyQ13Da8
p99
aV2vMvitDH9MLigSsxpEVzIN
p100
aV2w1jwy4Rfw7DRMsn72tPoG
p101
aV2wT61I0Zqfbdzrkr2dGd8r
p102
aV2x4Wu8WR2X47rMBgWVWBnU
p103
aV32JL9HbzCsPsQh4hyJEBzE
p104
aV386TOhBfCuuwE36ykHT91T
p105
aV3CqP60RUsrhRDJus3yalAF
p106
aV3PKjjyq6E57GLmefwJKK58
p107
aV3QFZvx49yi57nqSgfiOqfI
p108
aV3SsvsirxP4alBsG7clF3Ox
p109
aV3brCNRhSJW6mgm5rzwmaD0
p110
aV3kwdYKNCyIfmWQDsgcQ0Rb
p111
aV3o705G8j9ztnDG8m7sGmyU
p112
aV3vTXoYrHKvSkgD7prCwYgW
p113
aV40IS4XOkOmA8KqN09rNUy8
p114
aV42TAvmrlrFQE6Ifej21yQm
p115
aV45nVDr2YTFsovr0T7VmnOx
p116
aV45pvLeeK3mcKz1O8hPmYMX
p117
aV4LM7in394p4JnRs8awOrpD
p118
aV4UgRRdFW4H4Y711KmWwJLJ
p119
aV4YA9rB9XEX4mSwUF6bSgkN
p120
aV4gSGzJuEvPq1mMOmilx6u7
p121
aV4teIbCGADOYxzU9XzElvnQ
p122
aV4v9UC1S81u6t37DYDCeimA
p123
aV4vd7KzctkhCVCUnCCyoO0d
p124
aV5GQdtJa0OZu3hRefAueWBk
p125
aV5GYG009TjoMXGHb4TGRqk9
p126
aV5VZKuCbXNF1oYVOU1m1hEW
p127
aV5kcogo8rmbAuu8zeQbRUGg
p128
aV5qrfyPM4s9VG0WpEKBEWrZ
p129
aV5rpnXkcUyejpN0lxMe23XX
p130
aV5twpGTneeeDdLR60oAR0MA
p131
aV663E41fUIDEnzN7xTnFLT0
p132
aV6YcQssEtp9VdssPYIwwIjn
p133
aV6c4T1Dz9hwK5xat7eh3g8o
p134
aV6extgyeYdF9MW3gBe91rY4
p135
aV6kQslnSx6DvMjG1yBby22f
p136
aV6uoln64dSjWgnb4aAI4JzY
p137
aV6zHSljpcAC55lrIqjsS3TL
p138
aV6zQ1rRPS9JVM6EQjQqxtbz
p139
aV703DNl6A77y8Wyuof37IlD
p140
aV73fK1NmnAyblzAmgEToxpl
p141
aV77e9ESO8vUzxi0viEgDqyu
p142
aV78GyX18u4pQwlnVYBaGjbb
p143
aV7BglfN5b1n3ItWQ6SX1jlc
p144
aV7CJDRa03XNkqFcv2HnZ4lO
p145
aV7MlYRJOFuk7ge8Ruo6rqSn
p146
aV7aRD7mdzxwszfRNgv8hGzt
p147
aV7cCftH2CI7NpP1LHS74PxE
p148
aV7tcwPuaceqt58yG9hmzFLe
p149
aV7vRjJ6E9BBRoQva9OurhAQ
p150
aV7x48P3gi79WKxpZkzHMp82
p151
aV7ybRqQNDDe5qZNs5sg2V2Z
p152
aV7zkobTxrmZxHn2UAXNgG2o
p153
aV6nS5roXSAGhTGr34W6n7Et
p154
aV6nS5roXSAGhTGr34W6n7Et
p155
aV6nS5roXSAGhTGr34W6n7Et
p156
aV6nS5roXSAGhTGr34W6n7Et
p157
aV6nS5roXSAGhTGr34W6n7Et
p158
aV6nS5roXSAGhTGr34W6n7Et
p159
aV6nS5roXSAGhTGr34W6n7Et
p160
aV6nS5roXSAGhTGr34W6n7Et
p161
aV6nS5roXSAGhTGr34W6n7Et
p162
aV6nS5roXSAGhTGr34W6n7Et
p163
aV6nS5roXSAGhTGr34W6n7Et
p164
aV6nS5roXSAGhTGr34W6n7Et
p165
aV6nS5roXSAGhTGr34W6n7Et
p166
aV6nS5roXSAGhTGr34W6n7Et
p167
aV6nS5roXSAGhTGr34W6n7Et
p168
aV6nS5roXSAGhTGr34W6n7Et
p169
aV6nS5roXSAGhTGr34W6n7Et
p170
aV6nS5roXSAGhTGr34W6n7Et
p171
aV6nS5roXSAGhTGr34W6n7Et
p172
aV6nS5roXSAGhTGr34W6n7Et
p173
aV6nS5roXSAGhTGr34W6n7Et
p174
aV6nS5roXSAGhTGr34W6n7Et
p175
aV6nS5roXSAGhTGr34W6n7Et
p176
aV6nS5roXSAGhTGr34W6n7Et
p177
aV6nS5roXSAGhTGr34W6n7Et
p178
aV6nS5roXSAGhTGr34W6n7Et
p179
aV6nS5roXSAGhTGr34W6n7Et
p180
aV6nS5roXSAGhTGr34W6n7Et
p181
aV6nS5roXSAGhTGr34W6n7Et
p182
aV6nS5roXSAGhTGr34W6n7Et
p183
aV6nS5roXSAGhTGr34W6n7Et
p184
aV6nS5roXSAGhTGr34W6n7Et
p185
aV6nS5roXSAGhTGr34W6n7Et
p186
aV6nS5roXSAGhTGr34W6n7Et
p187
aV6nS5roXSAGhTGr34W6n7Et
p188
aV6nS5roXSAGhTGr34W6n7Et
p189
aV6nS5roXSAGhTGr34W6n7Et
p190
aV6nS5roXSAGhTGr34W6n7Et
p191
aV6nS5roXSAGhTGr34W6n7Et
p192
aV6nS5roXSAGhTGr34W6n7Et
p193
aV6nS5roXSAGhTGr34W6n7Et
p194
aV6nS5roXSAGhTGr34W6n7Et
p195
aV6nS5roXSAGhTGr34W6n7Et
p196
aV6nS5roXSAGhTGr34W6n7Et
p197
aV6nS5roXSAGhTGr34W6n7Et
p198
aV6nS5roXSAGhTGr34W6n7Et
p199
aV6nS5roXSAGhTGr34W6n7Et
p200
aV6nS5roXSAGhTGr34W6n7Et
p201
aV6nS5roXSAGhTGr34W6n7Et
p202
aV6nS5roXSAGhTGr34W6n7Et
p203
aV6nS5roXSAGhTGr34W6n7Et
p204
aV6nS5roXSAGhTGr34W6n7Et
p205
aV6nS5roXSAGhTGr34W6n7Et
p206
aV6nS5roXSAGhTGr34W6n7Et
p207
aV6nS5roXSAGhTGr34W6n7Et
p208
aV6nS5roXSAGhTGr34W6n7Et
p209
aV6nS5roXSAGhTGr34W6n7Et
p210
aV6nS5roXSAGhTGr34W6n7Et
p211
aV6nS5roXSAGhTGr34W6n7Et
p212
aV6nS5roXSAGhTGr34W6n7Et
p213
aV6nS5roXSAGhTGr34W6n7Et
p214
aV6nS5roXSAGhTGr34W6n7Et
p215
aV6nS5roXSAGhTGr34W6n7Et
p216
aV6nS5roXSAGhTGr34W6n7Et
p217
aV6nS5roXSAGhTGr34W6n7Et
p218
aV6nS5roXSAGhTGr34W6n7Et
p219
aV6nS5roXSAGhTGr34W6n7Et
p220
aV6nS5roXSAGhTGr34W6n7Et
p221
aV6nS5roXSAGhTGr34W6n7Et
p222
aV6nS5roXSAGhTGr34W6n7Et
p223
aV6nS5roXSAGhTGr34W6n7Et
p224
aV6nS5roXSAGhTGr34W6n7Et
p225
aV6nS5roXSAGhTGr34W6n7Et
p226
aV6nS5roXSAGhTGr34W6n7Et
p227
aV6nS5roXSAGhTGr34W6n7Et
p228
aV6nS5roXSAGhTGr34W6n7Et
p229
aV6nS5roXSAGhTGr34W6n7Et
p230
aV6nS5roXSAGhTGr34W6n7Et
p231
aV6nS5roXSAGhTGr34W6n7Et
p232
aV6nS5roXSAGhTGr34W6n7Et
p233
aV6nS5roXSAGhTGr34W6n7Et
p234
aV6nS5roXSAGhTGr34W6n7Et
p235
aV6nS5roXSAGhTGr34W6n7Et
p236
aVCaracal Live BBC Session
p237
aVLife-Enhancing Songs: Playlist Commentary
p238
aVSettle
p239
aVSettle
p240
aVMoog For Love
p241
aVSettle
p242
aVCaracal Live BBC Session
p243
aVThe Face [EP]
p244
aVSettle [Special Edition]
p245
aVBeautiful Sounds: Playlist Commentary
p246
aVLife-Enhancing Songs: Playlist Commentary
p247
aVBeautiful Sounds: Playlist Commentary
p248
aVJaded
p249
aVThick As A Brick
p250
aVSettle
p251
aVSettle
p252
aVCaracal
p253
aVThe Face (Remixes)
p254
aVCaracal
p255
aVCaracal
p256
aVSettle
p257
aVMagnets
p258
aVLife-Enhancing Songs: Playlist Commentary
p259
aVSettle [Special Edition]
p260
aVCaracal
p261
aVSettle [Special Edition]
p262
aNaVSettle [Special Edition]
p263
aVBeautiful Sounds: Playlist Commentary
p264
aVCaracal
p265
aVSettle [Special Edition]
p266
aVSettle
p267
aVMagnets
p268
aVSettle [Special Edition]
p269
aVSpotify Sessions
p270
aVSettle [Special Edition]
p271
aVOmen
p272
aVCaracal [Bonus Tracks]
p273
aVCaracal
p274
aVSettle [Special Edition]
p275
aVSettle [Special Edition]
p276
aVBeautiful Sounds: Playlist Commentary
p277
aVOffline Dexterity
p278
aVCaracal
p279
aVSettle [Special Edition]
p280
aVBeautiful Sounds: Playlist Commentary
p281
aVCaracal
p282
aVCaracal Live BBC Session
p283
aVFollow
p284
aVBeautiful Sounds: Playlist Commentary
p285
aVBeautiful Sounds: Playlist Commentary
p286
aVMagnets
p287
aNaVCaracal
p288
aVSettle [Special Edition]
p289
aVCaracal Live BBC Session
p290
aVSettle
p291
aVSettle [Special Edition]
p292
aVSettle
p293
aVLife-Enhancing Songs: Playlist Commentary
p294
aVLife-Enhancing Songs: Playlist Commentary
p295
aVMoog For Love [EP]
p296
aVMagnets [The Remixes]
p297
aVCaracal
p298
aVThe Mechanism
p299
aVOmen
p300
aVNocturnal
p301
aVNever Be Like You (Disclosure Remix) [feat. Kai]
p302
aVNocturnal
p303
aVTenderly/Flow
p304
aVBeautiful Sounds: Playlist Commentary
p305
aVLife-Enhancing Songs: Playlist Commentary
p306
aVCaracal
p307
aVSettle
p308
aVLife-Enhancing Songs: Playlist Commentary
p309
aVSpotify Sessions
p310
aVOmen (Radio Edit)
p311
aVLatch Featuring Sam Smith
p312
aVLife-Enhancing Songs: Playlist Commentary
p313
aNaVSettle [Special Edition]
p314
aVSettle
p315
aVLife-Enhancing Songs: Playlist Commentary
p316
aV2015
p317
aV2016
p318
aV2013
p319
aV2013
p320
aV2016
p321
aV2013
p322
aV2015
p323
aV2012
p324
aV2013
p325
aV2016
p326
aV2016
p327
aV2016
p328
aV2015
p329
aV1990
p330
aV2013
p331
aV2013
p332
aV2015
p333
aV2012
p334
aV2015
p335
aV2015
p336
aV2013
p337
aV2015
p338
aV2016
p339
aV2013
p340
aV2015
p341
aV2013
p342
aNaV2013
p343
aV2016
p344
aV2015
p345
aV2013
p346
aV2013
p347
aV2015
p348
aV2013
p349
aV2013
p350
aV2013
p351
aV2015
p352
aV2015
p353
aV2015
p354
aV2013
p355
aV2013
p356
aV2016
p357
aV2010
p358
aV2015
p359
aV2013
p360
aV2016
p361
aV2015
p362
aV2015
p363
aV
p364
aV2016
p365
aV2016
p366
aV2015
p367
aNaV2015
p368
aV2013
p369
aV2015
p370
aV2013
p371
aV2013
p372
aV2013
p373
aV2016
p374
aV2016
p375
aV2016
p376
aV2015
p377
aV2015
p378
aV2014
p379
aV2015
p380
aV2016
p381
aV2016
p382
aV2016
p383
aV2012
p384
aV2016
p385
aV2016
p386
aV2015
p387
aV2013
p388
aV2016
p389
aV2013
p390
aV2015
p391
ag364
aV2016
p392
aNaV2013
p393
aV2013
p394
aV2016
p395
aVMale
p396
aVMale
p397
aVMale
p398
aVMale
p399
aVMale
p400
aVMale
p401
aVMale
p402
aVMale
p403
aVMixed
p404
aVMale
p405
aVMale
p406
aVMale
p407
aVMale
p408
aVMale
p409
aVMale
p410
aVMale
p411
aVMixed
p412
aVMale
p413
aVMale
p414
aVMale
p415
aVMixed
p416
aVMale
p417
aVMale
p418
aVMale
p419
aVMale
p420
aVMixed
p421
aNaVMixed
p422
aVMale
p423
aVMale
p424
aVMale
p425
aVMale
p426
aVMale
p427
aVMale
p428
aVMale
p429
aVMale
p430
aVMale
p431
aVMale
p432
aVMale
p433
aVMale
p434
aVFemale
p435
aVMale
p436
aVMale
p437
aVMale
p438
aVMale
p439
aVMale
p440
aVMale
p441
aVMale
p442
aNaVMale
p443
aVMale
p444
aVMale
p445
aNaVMixed
p446
aVMixed
p447
aVMale
p448
aVMale
p449
aVMixed
p450
aVMixed
p451
aVMale
p452
aVMale
p453
aVMale
p454
aVMixed
p455
aVMale
p456
aVMale
p457
aVMale
p458
aVMale
p459
aVMale
p460
aVMale
p461
aVMale
p462
aVMale
p463
aVMale
p464
aVMale
p465
aVMale
p466
aVMale
p467
aVMale
p468
aVMale
p469
aVMale
p470
aVMale
p471
aNaVMale
p472
aVMale
p473
aVMale
p474
aVElectronica
p475
aVAlternative & Punk
p476
aVElectronica
p477
aVElectronica
p478
aVElectronica
p479
aVElectronica
p480
aVElectronica
p481
aNaVElectronica
p482
aVAlternative & Punk
p483
aVAlternative & Punk
p484
aVAlternative & Punk
p485
aVElectronica
p486
aVRock
p487
aVElectronica
p488
aVElectronica
p489
aVElectronica
p490
aVElectronica
p491
aVElectronica
p492
aVElectronica
p493
aVElectronica
p494
aVElectronica
p495
aVAlternative & Punk
p496
aVElectronica
p497
aVElectronica
p498
aVElectronica
p499
aNaVElectronica
p500
aVAlternative & Punk
p501
aVElectronica
p502
aVElectronica
p503
aVElectronica
p504
aVElectronica
p505
aVElectronica
p506
aVElectronica
p507
aVElectronica
p508
aVElectronica
p509
aVElectronica
p510
aVElectronica
p511
aVElectronica
p512
aVUrban
p513
aVAlternative & Punk
p514
aVElectronica
p515
aVElectronica
p516
aVElectronica
p517
aVAlternative & Punk
p518
aVElectronica
p519
aVElectronica
p520
aVOther
p521
aVAlternative & Punk
p522
aVAlternative & Punk
p523
aVElectronica
p524
aNaVElectronica
p525
aVElectronica
p526
aVElectronica
p527
aVElectronica
p528
aVElectronica
p529
aVElectronica
p530
aVAlternative & Punk
p531
aVAlternative & Punk
p532
aVElectronica
p533
aVElectronica
p534
aVElectronica
p535
aVElectronica
p536
aVElectronica
p537
aVElectronica
p538
aVElectronica
p539
aVElectronica
p540
aVElectronica
p541
aVAlternative & Punk
p542
aVAlternative & Punk
p543
aVElectronica
p544
aVElectronica
p545
aVAlternative & Punk
p546
aVElectronica
p547
aVElectronica
p548
aNaVAlternative & Punk
p549
aNaVElectronica
p550
aVElectronica
p551
aVAlternative & Punk
p552
aVHouse
p553
aVPunk
p554
aVHouse
p555
aVHouse
p556
aVHouse
p557
aVHouse
p558
aVHouse
p559
aNaVHouse
p560
aVPunk
p561
aVPunk
p562
aVPunk
p563
aVHouse
p564
aV70's Rock
p565
aVHouse
p566
aVHouse
p567
aVHouse
p568
aVHouse
p569
aVHouse
p570
aVHouse
p571
aVHouse
p572
aVHouse
p573
aVPunk
p574
aVHouse
p575
aVHouse
p576
aVHouse
p577
aNaVHouse
p578
aVPunk
p579
aVElectronica Mainstream
p580
aVHouse
p581
aVHouse
p582
aVHouse
p583
aVHouse
p584
aVHouse
p585
aVHouse
p586
aVHouse
p587
aVHouse
p588
aVHouse
p589
aVHouse
p590
aVContemporary R&B/Soul
p591
aVPunk
p592
aVHouse
p593
aVHouse
p594
aVHouse
p595
aVPunk
p596
aVHouse
p597
aVHouse
p598
aVData & Other
p599
aVPunk
p600
aVPunk
p601
aVHouse
p602
aNaVHouse
p603
aVHouse
p604
aVHouse
p605
aVHouse
p606
aVHouse
p607
aVHouse
p608
aVPunk
p609
aVPunk
p610
aVDowntempo, Lounge & Ambient
p611
aVHouse
p612
aVHouse
p613
aVHouse
p614
aVHouse
p615
aVHouse
p616
aVHouse
p617
aVHouse
p618
aVHouse
p619
aVPunk
p620
aVPunk
p621
aVHouse
p622
aVHouse
p623
aVPunk
p624
aVHouse
p625
aVHouse
p626
aNaVPunk
p627
aNaVHouse
p628
aVHouse
p629
aVPunk
p630
aV566019152-E1D8CC70A1AC33433BF75C294DE366C4
p631
aV649282785-C790DE3001B80CF46E1804B0A17C13E5
p632
aV439887654-846F26D893F78E79657AA6F4249EFB05
p633
aV343671206-768F5F3CAFC6E53E18C4E6B413D69B01
p634
aV636907952-BB236E26C77ADCD8FE0E23333145F4AE
p635
aV343671203-2B3A541BF8A5E77E81A5B99A82E6B110
p636
aV566019155-4E21F4896017506B61BE22075E3523B8
p637
aV270229668-4ABFD14A0F16191C8EAA80D6A2817280
p638
aV390393607-520C2B0118C5294DF41DB54B7913C9C3
p639
aV649283060-A9AFDC4885BCB16ED8CA72EB7DED7CC5
p640
aV649282786-CD4EE2ABB0DCD65FDF3C781AD7C83266
p641
aV649283057-945D57B125A71F1F67B64A9A2EA74B5E
p642
aV564132817-5F99E528BD21773DD1BE515AD4D818F9
p643
aV139682256-97DE76B8CC692AB01E822D631687FCDB
p644
aV439887655-C057FBDA871D6BC2F86720330C7662D8
p645
aV343671209-1312555DB8CFC677F80589D419B691F3
p646
aV563289932-EA1A10FF24953F67295448DEA38218EA
p647
aV281759192-FDD8E6148AD09E4AB32256F45E323B01
p648
aV563289936-C6F0B9BC2187CD4FF19C9A0ACD73A66D
p649
aV546854883-3F2DCE76E467B7BCE0235287BFBE91BF
p650
aV343671207-4EF3BAEDB9ADC4B4626915225261C95E
p651
aV575304620-01C2C9EB00561C71D91C3E487C1DB62F
p652
aV649282782-318DE669C8CD48CB4715F25E3F168ADD
p653
aV390393595-85AA28EE926970AE4D7B0F051280E08D
p654
aV546854880-6D5D4FAD5068A03CBF3E417F357230ED
p655
aV390393613-FA987545CE19DD045E48D6862AE79FB1
p656
aNaV390393593-BE1D8A3652B6C69D5B2AAC38A3DC8B8E
p657
aV649283055-A3C7689F641B72CA35B405F77471770A
p658
aV548679507-7477C0C9CA231441A51BFC9EB522AFCA
p659
aV390393592-F7FA08B480C1A2477E92D7F1BA10D837
p660
aV343671204-323058764554A8A0111D1555A59DE3AF
p661
aV569335024-8CC6092FA9EC08A1740AE2D73CB7F6B5
p662
aV390393581-B94830B57E2E717458B0166C0EF3A03D
p663
aV456591774-5D3D3181D55F72C898410F3976BE46D0
p664
aV390393606-E672B58EC1D493C600916D7EB55CC50C
p665
aV559317204-EF1287E4090A605D480AC6BCDEDFDD73
p666
aV558035890-2E73D9579917C234889DD96A63CFBCA0
p667
aV546854889-68C3FCE7730BA1874DA3022AB97B08F7
p668
aV390393584-CEC4120538AC162BA6BAFEFE4F78055E
p669
aV390393605-5269466BBF65E2C37173EFCDA475B6F5
p670
aV649283054-DB0A1F4E7D94DBAA3863BB171E6AA884
p671
aV267517502-ACA432FF2A60AAC13B0DDCB81CC516B5
p672
aV548679508-EE2FBD245923218115488D4575EF075E
p673
aV390393586-01A0B1BF58EB651B351483F54FBA47DE
p674
aV649283061-B3C384D260A5E1FC7592D96BD2DC63D4
p675
aV548679506-39A57CC6087B8E2A5F15F6F6FA42A0AD
p676
aV566019153-27D97FA4A3DA789503CE099D39595D4D
p677
aV484156973-7F9876CCE1C01CB6213926FEB69BD0B1
p678
aV649283053-1676316B04AFE9AAF58E8FCCE735C53B
p679
aV649283056-5382CED2B4370AC5EDBA7A6BEAC3A619
p680
aV573940232-750C53A1BC59D8BA2C772026E257796E
p681
aNaV563289937-0CC53D43F858DBD6E06F232A0C535CE8
p682
aV390393603-B172626F849C29751A1B753E6936267A
p683
aV566019154-CD8205541FC248BF0DB14EC42A9D0897
p684
aV499972110-49C4805C3557FE2A5069717D73BCEFBA
p685
aV390393604-9593BDF971D5F5C6A21075663708382B
p686
aV343671202-C8D21FCE782512E939AC30CCD2FC7421
p687
aV649282781-4E64E3EC53A25F40B2A5EC42173ABA3D
p688
aV649282783-1490F044AFC78F620784802DB2F7E7EE
p689
aV636906776-F14F207A9C62B8C7733AC17D63688249
p690
aV576160906-60E307EAFCFB689B839EB48157AA19B9
p691
aV548680931-49E23CB64519C9D80A4E206B4949103B
p692
aV418422063-8F1A5A59F0F58D4F527C754A981F35FC
p693
aV557353594-11D4346680AD451B58F48C3CD4DFCC2A
p694
aV606487542-5026B11B2EA866B8616AB8E6948ADF82
p695
aV613719994-458BF3B7642E08BB771A130C790E16EE
p696
aV606487774-22B3DEC99548C86DC05FEDCDE3473599
p697
aV263270996-6F948C3AFA17CC4BFAB9C70670AD2C48
p698
aV649283059-2A5AEE3B2218C315958E0DB3081EDD18
p699
aV649282778-89F044983C752253EF87442CB017FCFF
p700
aV546854888-98F871A2F5E1A6618F284687E8626374
p701
aV343671214-19EFCA754A039D6F01BA24AA094737C6
p702
aV649282779-E1467FE26E05AC1EADA12C71CE19C0E8
p703
aV456591774-5D3D3181D55F72C898410F3976BE46D0
p704
aV603214352-26A860A249ED50837D2F6B35ADD67574
p705
aV517009333-846EAC159B74F5922616DF8B147D16F8
p706
aV649282784-6D588A5D32FD094231C33007B4175ED9
p707
aNaV390393596-C692A9C59ACB3F23978C365879359C2C
p708
aV343671215-A1E1DFD99DD2F4C7B0DF322ACACCA1FD
p709
aV649282780-CFDC8E880C1861B573D8EDE932D1A62A
p710
aVStirring
p711
aVCool
p712
aNaVEnergizing
p713
aVEnergizing
p714
aVCool
p715
aVMelancholy
p716
aVEnergizing
p717
aVSensual
p718
aVOther
p719
aVOther
p720
aVOther
p721
aVGritty
p722
aVExcited
p723
aNaVDefiant
p724
aVCool
p725
aVEnergizing
p726
aVSensual
p727
aVCool
p728
aVEnergizing
p729
aVEnergizing
p730
aVOther
p731
aVEnergizing
p732
aVEnergizing
p733
aVExcited
p734
aNaVEnergizing
p735
aVCool
p736
aVCool
p737
aVEnergizing
p738
aVEnergizing
p739
aVCool
p740
aVMelancholy
p741
aVBrooding
p742
aVEnergizing
p743
aVCool
p744
aVExcited
p745
aVSensual
p746
aVEnergizing
p747
aVCool
p748
aVOther
p749
aVEnergizing
p750
aVCool
p751
aVEnergizing
p752
aVOther
p753
aVEnergizing
p754
aVSensual
p755
aVEnergizing
p756
aVOther
p757
aVCool
p758
aVEnergizing
p759
aNaVEnergizing
p760
aVSensual
p761
aVFiery
p762
aNaVEnergizing
p763
aVDefiant
p764
aVOther
p765
aVCool
p766
aVExcited
p767
aVExcited
p768
aVEnergizing
p769
aVEnergizing
p770
aVEnergizing
p771
aVEnergizing
p772
aVEnergizing
p773
aVEnergizing
p774
aVEnergizing
p775
aVOther
p776
aVCool
p777
aVEnergizing
p778
aVCool
p779
aVOther
p780
aVBrooding
p781
aVStirring
p782
aNaVOther
p783
aNaVExcited
p784
aVExcited
p785
aVOther
p786
atp787
ba(lp788
g15
(g16
(dp789
g18
g19
(g20
(I0
tp790
g22
tp791
Rp792
(I1
(I1
tp793
g29
I00
(lp794
g33
atp795
bsg44
Nstp796
Rp797
ag15
(g16
(dp798
g18
g19
(g20
(I0
tp799
g22
tp800
Rp801
(I1
(I9
tp802
g29
I00
(lp803
g34
ag35
ag36
ag37
ag38
ag39
ag40
ag41
ag42
atp804
bsg44
Nstp805
Rp806
a(dp807
S'0.14.1'
p808
(dp809
S'axes'
p810
g14
sS'blocks'
p811
(lp812
(dp813
S'mgr_locs'
p814
c__builtin__
slice
p815
(I0
I1
I1
tp816
Rp817
sS'values'
p818
g57
sa(dp819
g814
g815
(I1
I10
I1
tp820
Rp821
sg818
g68
sasstp822
bsb.